target datalayout = "e-m:e-p270:32:32-p271:32:32-p272:64:64-i64:64-i128:128-f80:128-n8:16:32:64-S128"
target triple = "x86_64-pc-linux-gnu"

%"class.RangeCheckEliminator::Bound" = type { i32, ptr, i32, ptr }

; Function Attrs: mustprogress nounwind uwtable
define linkonce_odr hidden noundef i32 @_Z4MAX2IiET_S0_S0_(i32 noundef %0, i32 noundef %1) #1 comdat {
  %3 = alloca i32, align 4
  %4 = alloca i32, align 4
  store i32 %0, ptr %3, align 4
  store i32 %1, ptr %4, align 4
  %5 = load i32, ptr %3, align 4
  %6 = load i32, ptr %4, align 4
  %7 = icmp sgt i32 %5, %6
  br i1 %7, label %8, label %10

8:                                                ; preds = %2
  %9 = load i32, ptr %3, align 4
  br label %12

10:                                               ; preds = %2
  %11 = load i32, ptr %4, align 4
  br label %12

12:                                               ; preds = %10, %8
  %13 = phi i32 [ %9, %8 ], [ %11, %10 ]
  ret i32 %13
}

; Function Attrs: mustprogress nounwind uwtable
define linkonce_odr hidden noundef i32 @_Z4MIN2IiET_S0_S0_(i32 noundef %0, i32 noundef %1) #1 comdat {
  %3 = alloca i32, align 4
  %4 = alloca i32, align 4
  store i32 %0, ptr %3, align 4
  store i32 %1, ptr %4, align 4
  %5 = load i32, ptr %3, align 4
  %6 = load i32, ptr %4, align 4
  %7 = icmp slt i32 %5, %6
  br i1 %7, label %8, label %10

8:                                                ; preds = %2
  %9 = load i32, ptr %3, align 4
  br label %12

10:                                               ; preds = %2
  %11 = load i32, ptr %4, align 4
  br label %12

12:                                               ; preds = %10, %8
  %13 = phi i32 [ %9, %8 ], [ %11, %10 ]
  ret i32 %13
}

; Function Attrs: mustprogress nounwind uwtable
define hidden void @_ZN20RangeCheckEliminator5Bound5or_opEPS0_(ptr noundef nonnull align 8 dereferenceable(32) %0, ptr noundef %1) #1 align 2 {
  %3 = alloca ptr, align 8
  %4 = alloca ptr, align 8
  store ptr %0, ptr %3, align 8
  store ptr %1, ptr %4, align 8
  %5 = load ptr, ptr %3, align 8
  %6 = getelementptr inbounds %"class.RangeCheckEliminator::Bound", ptr %5, i32 0, i32 3
  %7 = load ptr, ptr %6, align 8
  %8 = load ptr, ptr %4, align 8
  %9 = getelementptr inbounds %"class.RangeCheckEliminator::Bound", ptr %8, i32 0, i32 3
  %10 = load ptr, ptr %9, align 8
  %11 = icmp ne ptr %7, %10
  br i1 %11, label %23, label %12

12:                                               ; preds = %2
  %13 = getelementptr inbounds %"class.RangeCheckEliminator::Bound", ptr %5, i32 0, i32 3
  %14 = load ptr, ptr %13, align 8
  %15 = icmp ne ptr %14, null
  br i1 %15, label %16, label %26

16:                                               ; preds = %12
  %17 = getelementptr inbounds %"class.RangeCheckEliminator::Bound", ptr %5, i32 0, i32 2
  %18 = load i32, ptr %17, align 8
  %19 = load ptr, ptr %4, align 8
  %20 = getelementptr inbounds %"class.RangeCheckEliminator::Bound", ptr %19, i32 0, i32 2
  %21 = load i32, ptr %20, align 8
  %22 = icmp ne i32 %18, %21
  br i1 %22, label %23, label %26

23:                                               ; preds = %16, %2
  %24 = getelementptr inbounds %"class.RangeCheckEliminator::Bound", ptr %5, i32 0, i32 3
  store ptr null, ptr %24, align 8
  %25 = getelementptr inbounds %"class.RangeCheckEliminator::Bound", ptr %5, i32 0, i32 2
  store i32 -2147483648, ptr %25, align 8
  br label %34

26:                                               ; preds = %16, %12
  %27 = getelementptr inbounds %"class.RangeCheckEliminator::Bound", ptr %5, i32 0, i32 2
  %28 = load i32, ptr %27, align 8
  %29 = load ptr, ptr %4, align 8
  %30 = getelementptr inbounds %"class.RangeCheckEliminator::Bound", ptr %29, i32 0, i32 2
  %31 = load i32, ptr %30, align 8
  %32 = call noundef i32 @_Z4MIN2IiET_S0_S0_(i32 noundef %28, i32 noundef %31)
  %33 = getelementptr inbounds %"class.RangeCheckEliminator::Bound", ptr %5, i32 0, i32 2
  store i32 %32, ptr %33, align 8
  br label %34

34:                                               ; preds = %26, %23
  %35 = getelementptr inbounds %"class.RangeCheckEliminator::Bound", ptr %5, i32 0, i32 1
  %36 = load ptr, ptr %35, align 8
  %37 = load ptr, ptr %4, align 8
  %38 = getelementptr inbounds %"class.RangeCheckEliminator::Bound", ptr %37, i32 0, i32 1
  %39 = load ptr, ptr %38, align 8
  %40 = icmp ne ptr %36, %39
  br i1 %40, label %52, label %41

41:                                               ; preds = %34
  %42 = getelementptr inbounds %"class.RangeCheckEliminator::Bound", ptr %5, i32 0, i32 1
  %43 = load ptr, ptr %42, align 8
  %44 = icmp ne ptr %43, null
  br i1 %44, label %45, label %55

45:                                               ; preds = %41
  %46 = getelementptr inbounds %"class.RangeCheckEliminator::Bound", ptr %5, i32 0, i32 0
  %47 = load i32, ptr %46, align 8
  %48 = load ptr, ptr %4, align 8
  %49 = getelementptr inbounds %"class.RangeCheckEliminator::Bound", ptr %48, i32 0, i32 0
  %50 = load i32, ptr %49, align 8
  %51 = icmp ne i32 %47, %50
  br i1 %51, label %52, label %55

52:                                               ; preds = %45, %34
  %53 = getelementptr inbounds %"class.RangeCheckEliminator::Bound", ptr %5, i32 0, i32 1
  store ptr null, ptr %53, align 8
  %54 = getelementptr inbounds %"class.RangeCheckEliminator::Bound", ptr %5, i32 0, i32 0
  store i32 2147483647, ptr %54, align 8
  br label %63

55:                                               ; preds = %45, %41
  %56 = getelementptr inbounds %"class.RangeCheckEliminator::Bound", ptr %5, i32 0, i32 0
  %57 = load i32, ptr %56, align 8
  %58 = load ptr, ptr %4, align 8
  %59 = getelementptr inbounds %"class.RangeCheckEliminator::Bound", ptr %58, i32 0, i32 0
  %60 = load i32, ptr %59, align 8
  %61 = call noundef i32 @_Z4MAX2IiET_S0_S0_(i32 noundef %57, i32 noundef %60)
  %62 = getelementptr inbounds %"class.RangeCheckEliminator::Bound", ptr %5, i32 0, i32 0
  store i32 %61, ptr %62, align 8
  br label %63

63:                                               ; preds = %55, %52
  ret void
}