; Function Attrs: mustprogress nofree norecurse nosync nounwind willreturn memory(argmem: readwrite) uwtable
define hidden void @_ZN20RangeCheckEliminator5Bound5or_opEPS0_(ptr nocapture noundef nonnull align 8 dereferenceable(32) %0, ptr nocapture noundef readonly %1) local_unnamed_addr #3 align 2 {
  %3 = getelementptr inbounds i8, ptr %0, i64 24
  %4 = load ptr, ptr %3, align 8
  %5 = getelementptr inbounds i8, ptr %1, i64 24
  %6 = load ptr, ptr %5, align 8
  %.not = icmp eq ptr %4, %6
  br i1 %.not, label %7, label %9

7:                                                ; preds = %2
  %.not8 = icmp eq ptr %4, null
  %.phi.trans.insert = getelementptr inbounds i8, ptr %0, i64 16
  %.pre = load i32, ptr %.phi.trans.insert, align 8
  %.phi.trans.insert13 = getelementptr inbounds i8, ptr %1, i64 16
  %.pre14 = load i32, ptr %.phi.trans.insert13, align 8
  br i1 %.not8, label %._crit_edge, label %8

8:                                                ; preds = %7
  %.not9 = icmp eq i32 %.pre, %.pre14
  br i1 %.not9, label %._crit_edge, label %9

9:                                                ; preds = %8, %2
  store ptr null, ptr %3, align 8
  %10 = getelementptr inbounds i8, ptr %0, i64 16
  store i32 -2147483648, ptr %10, align 8
  br label %14

._crit_edge:                                      ; preds = %7, %8
  %11 = phi i32 [ %.pre, %8 ], [ %.pre14, %7 ]
  %12 = getelementptr inbounds i8, ptr %0, i64 16
  %13 = tail call noundef i32 @llvm.smin.i32(i32 %.pre, i32 %11)
  store i32 %13, ptr %12, align 8
  br label %14

14:                                               ; preds = %._crit_edge, %9
  %15 = getelementptr inbounds i8, ptr %0, i64 8
  %16 = load ptr, ptr %15, align 8
  %17 = getelementptr inbounds i8, ptr %1, i64 8
  %18 = load ptr, ptr %17, align 8
  %.not10 = icmp eq ptr %16, %18
  br i1 %.not10, label %19, label %20

19:                                               ; preds = %14
  %.not11 = icmp eq ptr %16, null
  %.pre15 = load i32, ptr %0, align 8
  %.pre16 = load i32, ptr %1, align 8
  %.not12 = icmp eq i32 %.pre15, %.pre16
  %or.cond = select i1 %.not11, i1 true, i1 %.not12
  br i1 %or.cond, label %21, label %20

20:                                               ; preds = %19, %14
  store ptr null, ptr %15, align 8
  br label %23

21:                                               ; preds = %19
  %22 = tail call noundef i32 @llvm.smax.i32(i32 %.pre15, i32 %.pre16)
  br label %23

23:                                               ; preds = %21, %20
  %storemerge = phi i32 [ %22, %21 ], [ 2147483647, %20 ]
  store i32 %storemerge, ptr %0, align 8
  ret void
}